target datalayout = "e-m:e-p270:32:32-p271:32:32-p272:64:64-i64:64-i128:128-f80:128-n8:16:32:64-S128"
target triple = "x86_64-pc-linux-gnu"

%struct.QueryOperator = type { i8, i8, i16, i32 }
%struct.QueryOperand = type { i8, i8, i8, i32, i32 }
%struct.TSQueryData = type { i32, i32, [0 x i8] }
%union.QueryItem = type { %struct.QueryOperand }
%struct.FunctionCallInfoBaseData = type { ptr, ptr, ptr, i32, i8, i16, [0 x %struct.NullableDatum] }
%struct.NullableDatum = type { i64, i8 }
%struct.StringInfoData = type { ptr, i32, i32, i32 }

@.str.1 = private unnamed_addr constant [10 x i8] c"tsquery.c\00", align 1
@.str.5 = private unnamed_addr constant [35 x i8] c"unrecognized tsquery node type: %d\00", align 1
@__func__.tsquerysend = private unnamed_addr constant [12 x i8] c"tsquerysend\00", align 1

; Function Attrs: inlinehint nounwind uwtable
define internal void @pq_writeint16(ptr noalias noundef %0, i16 noundef zeroext %1) #5 {
  %3 = alloca ptr, align 8
  %4 = alloca i16, align 2
  %5 = alloca i16, align 2
  store ptr %0, ptr %3, align 8
  store i16 %1, ptr %4, align 2
  call void @llvm.lifetime.start.p0(i64 2, ptr %5) #11
  %6 = load i16, ptr %4, align 2
  %7 = call i16 @llvm.bswap.i16(i16 %6)
  store i16 %7, ptr %5, align 2
  %8 = load ptr, ptr %3, align 8
  %9 = getelementptr inbounds nuw %struct.StringInfoData, ptr %8, i32 0, i32 0
  %10 = load ptr, ptr %9, align 8
  %11 = load ptr, ptr %3, align 8
  %12 = getelementptr inbounds nuw %struct.StringInfoData, ptr %11, i32 0, i32 1
  %13 = load i32, ptr %12, align 8
  %14 = sext i32 %13 to i64
  %15 = getelementptr inbounds i8, ptr %10, i64 %14
  call void @llvm.memcpy.p0.p0.i64(ptr align 1 %15, ptr align 2 %5, i64 2, i1 false)
  %16 = load ptr, ptr %3, align 8
  %17 = getelementptr inbounds nuw %struct.StringInfoData, ptr %16, i32 0, i32 1
  %18 = load i32, ptr %17, align 8
  %19 = sext i32 %18 to i64
  %20 = add i64 %19, 2
  %21 = trunc i64 %20 to i32
  store i32 %21, ptr %17, align 8
  call void @llvm.lifetime.end.p0(i64 2, ptr %5) #11
  ret void
}

; Function Attrs: inlinehint nounwind uwtable
define internal void @pq_writeint8(ptr noalias noundef %0, i8 noundef zeroext %1) #5 {
  %3 = alloca ptr, align 8
  %4 = alloca i8, align 1
  %5 = alloca i8, align 1
  store ptr %0, ptr %3, align 8
  store i8 %1, ptr %4, align 1
  call void @llvm.lifetime.start.p0(i64 1, ptr %5) #11
  %6 = load i8, ptr %4, align 1
  store i8 %6, ptr %5, align 1
  %7 = load ptr, ptr %3, align 8
  %8 = getelementptr inbounds nuw %struct.StringInfoData, ptr %7, i32 0, i32 0
  %9 = load ptr, ptr %8, align 8
  %10 = load ptr, ptr %3, align 8
  %11 = getelementptr inbounds nuw %struct.StringInfoData, ptr %10, i32 0, i32 1
  %12 = load i32, ptr %11, align 8
  %13 = sext i32 %12 to i64
  %14 = getelementptr inbounds i8, ptr %9, i64 %13
  call void @llvm.memcpy.p0.p0.i64(ptr align 1 %14, ptr align 1 %5, i64 1, i1 false)
  %15 = load ptr, ptr %3, align 8
  %16 = getelementptr inbounds nuw %struct.StringInfoData, ptr %15, i32 0, i32 1
  %17 = load i32, ptr %16, align 8
  %18 = sext i32 %17 to i64
  %19 = add i64 %18, 1
  %20 = trunc i64 %19 to i32
  store i32 %20, ptr %16, align 8
  call void @llvm.lifetime.end.p0(i64 1, ptr %5) #11
  ret void
}

; Function Attrs: inlinehint nounwind uwtable
define internal void @pq_writeint32(ptr noalias noundef %0, i32 noundef %1) #5 {
  %3 = alloca ptr, align 8
  %4 = alloca i32, align 4
  %5 = alloca i32, align 4
  store ptr %0, ptr %3, align 8
  store i32 %1, ptr %4, align 4
  call void @llvm.lifetime.start.p0(i64 4, ptr %5) #11
  %6 = load i32, ptr %4, align 4
  %7 = call i32 @llvm.bswap.i32(i32 %6)
  store i32 %7, ptr %5, align 4
  %8 = load ptr, ptr %3, align 8
  %9 = getelementptr inbounds nuw %struct.StringInfoData, ptr %8, i32 0, i32 0
  %10 = load ptr, ptr %9, align 8
  %11 = load ptr, ptr %3, align 8
  %12 = getelementptr inbounds nuw %struct.StringInfoData, ptr %11, i32 0, i32 1
  %13 = load i32, ptr %12, align 8
  %14 = sext i32 %13 to i64
  %15 = getelementptr inbounds i8, ptr %10, i64 %14
  call void @llvm.memcpy.p0.p0.i64(ptr align 1 %15, ptr align 4 %5, i64 4, i1 false)
  %16 = load ptr, ptr %3, align 8
  %17 = getelementptr inbounds nuw %struct.StringInfoData, ptr %16, i32 0, i32 1
  %18 = load i32, ptr %17, align 8
  %19 = sext i32 %18 to i64
  %20 = add i64 %19, 4
  %21 = trunc i64 %20 to i32
  store i32 %21, ptr %17, align 8
  call void @llvm.lifetime.end.p0(i64 4, ptr %5) #11
  ret void
}

; Function Attrs: inlinehint nounwind uwtable
define internal i64 @PointerGetDatum(ptr noundef %0) #5 {
  %2 = alloca ptr, align 8
  store ptr %0, ptr %2, align 8
  %3 = load ptr, ptr %2, align 8
  %4 = ptrtoint ptr %3 to i64
  ret i64 %4
}

; Function Attrs: inlinehint nounwind uwtable
define internal ptr @DatumGetPointer(i64 noundef %0) #5 {
  %2 = alloca i64, align 8
  store i64 %0, ptr %2, align 8
  %3 = load i64, ptr %2, align 8
  %4 = inttoptr i64 %3 to ptr
  ret ptr %4
}

; Function Attrs: inlinehint nounwind uwtable
define internal void @pq_sendint16(ptr noundef %0, i16 noundef zeroext %1) #5 {
  %3 = alloca ptr, align 8
  %4 = alloca i16, align 2
  store ptr %0, ptr %3, align 8
  store i16 %1, ptr %4, align 2
  %5 = load ptr, ptr %3, align 8
  call void @enlargeStringInfo(ptr noundef %5, i32 noundef 2)
  %6 = load ptr, ptr %3, align 8
  %7 = load i16, ptr %4, align 2
  call void @pq_writeint16(ptr noundef %6, i16 noundef zeroext %7)
  ret void
}

; Function Attrs: inlinehint nounwind uwtable
define internal void @pq_sendint8(ptr noundef %0, i8 noundef zeroext %1) #5 {
  %3 = alloca ptr, align 8
  %4 = alloca i8, align 1
  store ptr %0, ptr %3, align 8
  store i8 %1, ptr %4, align 1
  %5 = load ptr, ptr %3, align 8
  call void @enlargeStringInfo(ptr noundef %5, i32 noundef 1)
  %6 = load ptr, ptr %3, align 8
  %7 = load i8, ptr %4, align 1
  call void @pq_writeint8(ptr noundef %6, i8 noundef zeroext %7)
  ret void
}

; Function Attrs: inlinehint nounwind uwtable
define internal void @pq_sendint32(ptr noundef %0, i32 noundef %1) #5 {
  %3 = alloca ptr, align 8
  %4 = alloca i32, align 4
  store ptr %0, ptr %3, align 8
  store i32 %1, ptr %4, align 4
  %5 = load ptr, ptr %3, align 8
  call void @enlargeStringInfo(ptr noundef %5, i32 noundef 4)
  %6 = load ptr, ptr %3, align 8
  %7 = load i32, ptr %4, align 4
  call void @pq_writeint32(ptr noundef %6, i32 noundef %7)
  ret void
}

; Function Attrs: inlinehint nounwind uwtable
define internal ptr @DatumGetTSQuery(i64 noundef %0) #5 {
  %2 = alloca i64, align 8
  store i64 %0, ptr %2, align 8
  %3 = load i64, ptr %2, align 8
  %4 = call ptr @DatumGetPointer(i64 noundef %3)
  ret ptr %4
}

; Function Attrs: nounwind uwtable
define dso_local i64 @tsquerysend(ptr noundef %0) #0 {
  %2 = alloca ptr, align 8
  %3 = alloca ptr, align 8
  %4 = alloca %struct.StringInfoData, align 8
  %5 = alloca i32, align 4
  %6 = alloca ptr, align 8
  store ptr %0, ptr %2, align 8
  call void @llvm.lifetime.start.p0(i64 8, ptr %3) #11
  %7 = load ptr, ptr %2, align 8
  %8 = getelementptr inbounds nuw %struct.FunctionCallInfoBaseData, ptr %7, i32 0, i32 6
  %9 = getelementptr inbounds [0 x %struct.NullableDatum], ptr %8, i64 0, i64 0
  %10 = getelementptr inbounds nuw %struct.NullableDatum, ptr %9, i32 0, i32 0
  %11 = load i64, ptr %10, align 8
  %12 = call ptr @DatumGetTSQuery(i64 noundef %11)
  store ptr %12, ptr %3, align 8
  call void @llvm.lifetime.start.p0(i64 24, ptr %4) #11
  call void @llvm.lifetime.start.p0(i64 4, ptr %5) #11
  call void @llvm.lifetime.start.p0(i64 8, ptr %6) #11
  %13 = load ptr, ptr %3, align 8
  %14 = getelementptr inbounds nuw i8, ptr %13, i64 8
  store ptr %14, ptr %6, align 8
  call void @pq_begintypsend(ptr noundef %4)
  %15 = load ptr, ptr %3, align 8
  %16 = getelementptr inbounds nuw %struct.TSQueryData, ptr %15, i32 0, i32 1
  %17 = load i32, ptr %16, align 4
  call void @pq_sendint32(ptr noundef %4, i32 noundef %17)
  store i32 0, ptr %5, align 4
  br label %18

18:                                               ; preds = %84, %1
  %19 = load i32, ptr %5, align 4
  %20 = load ptr, ptr %3, align 8
  %21 = getelementptr inbounds nuw %struct.TSQueryData, ptr %20, i32 0, i32 1
  %22 = load i32, ptr %21, align 4
  %23 = icmp slt i32 %19, %22
  br i1 %23, label %24, label %87

24:                                               ; preds = %18
  %25 = load ptr, ptr %6, align 8
  %26 = load i8, ptr %25, align 4
  call void @pq_sendint8(ptr noundef %4, i8 noundef zeroext %26)
  %27 = load ptr, ptr %6, align 8
  %28 = load i8, ptr %27, align 4
  %29 = sext i8 %28 to i32
  switch i32 %29, label %67 [
    i32 1, label %30
    i32 2, label %53
  ]

30:                                               ; preds = %24
  %31 = load ptr, ptr %6, align 8
  %32 = getelementptr inbounds nuw %struct.QueryOperand, ptr %31, i32 0, i32 1
  %33 = load i8, ptr %32, align 1
  call void @pq_sendint8(ptr noundef %4, i8 noundef zeroext %33)
  %34 = load ptr, ptr %6, align 8
  %35 = getelementptr inbounds nuw %struct.QueryOperand, ptr %34, i32 0, i32 2
  %36 = load i8, ptr %35, align 2, !range !6, !noundef !7
  %37 = trunc i8 %36 to i1
  %38 = zext i1 %37 to i8
  call void @pq_sendint8(ptr noundef %4, i8 noundef zeroext %38)
  %39 = load ptr, ptr %3, align 8
  %40 = getelementptr inbounds nuw i8, ptr %39, i64 8
  %41 = load ptr, ptr %3, align 8
  %42 = getelementptr inbounds nuw %struct.TSQueryData, ptr %41, i32 0, i32 1
  %43 = load i32, ptr %42, align 4
  %44 = sext i32 %43 to i64
  %45 = mul i64 %44, 12
  %46 = getelementptr inbounds nuw i8, ptr %40, i64 %45
  %47 = load ptr, ptr %6, align 8
  %48 = getelementptr inbounds nuw %struct.QueryOperand, ptr %47, i32 0, i32 4
  %49 = load i32, ptr %48, align 4
  %50 = lshr i32 %49, 12
  %51 = sext i32 %50 to i64
  %52 = getelementptr inbounds i8, ptr %46, i64 %51
  call void @pq_sendstring(ptr noundef %4, ptr noundef %52)
  br label %81

53:                                               ; preds = %24
  %54 = load ptr, ptr %6, align 8
  %55 = getelementptr inbounds nuw %struct.QueryOperator, ptr %54, i32 0, i32 1
  %56 = load i8, ptr %55, align 1
  call void @pq_sendint8(ptr noundef %4, i8 noundef zeroext %56)
  %57 = load ptr, ptr %6, align 8
  %58 = getelementptr inbounds nuw %struct.QueryOperator, ptr %57, i32 0, i32 1
  %59 = load i8, ptr %58, align 1
  %60 = sext i8 %59 to i32
  %61 = icmp eq i32 %60, 4
  br i1 %61, label %62, label %66

62:                                               ; preds = %53
  %63 = load ptr, ptr %6, align 8
  %64 = getelementptr inbounds nuw %struct.QueryOperator, ptr %63, i32 0, i32 2
  %65 = load i16, ptr %64, align 2
  call void @pq_sendint16(ptr noundef %4, i16 noundef zeroext %65)
  br label %66

66:                                               ; preds = %62, %53
  br label %81

67:                                               ; preds = %24
  br label %68

68:                                               ; preds = %67
  br i1 true, label %69, label %71

69:                                               ; preds = %68
  %70 = call zeroext i1 @errstart_cold(i32 noundef 21, ptr noundef null) #12
  br i1 %70, label %73, label %78

71:                                               ; preds = %68
  %72 = call zeroext i1 @errstart(i32 noundef 21, ptr noundef null)
  br i1 %72, label %73, label %78

73:                                               ; preds = %71, %69
  %74 = load ptr, ptr %6, align 8
  %75 = load i8, ptr %74, align 4
  %76 = sext i8 %75 to i32
  %77 = call i32 (ptr, ...) @errmsg_internal(ptr noundef @.str.5, i32 noundef %76)
  call void @errfinish(ptr noundef @.str.1, i32 noundef 1215, ptr noundef @__func__.tsquerysend)
  br label %78

78:                                               ; preds = %73, %71, %69
  unreachable

79:                                               ; No predecessors!
  br label %80

80:                                               ; preds = %79
  br label %81

81:                                               ; preds = %80, %66, %30
  %82 = load ptr, ptr %6, align 8
  %83 = getelementptr inbounds nuw %union.QueryItem, ptr %82, i32 1
  store ptr %83, ptr %6, align 8
  br label %84

84:                                               ; preds = %81
  %85 = load i32, ptr %5, align 4
  %86 = add i32 %85, 1
  store i32 %86, ptr %5, align 4
  br label %18, !llvm.loop !20

87:                                               ; preds = %18
  br label %88

88:                                               ; preds = %87
  %89 = load ptr, ptr %3, align 8
  %90 = load ptr, ptr %2, align 8
  %91 = getelementptr inbounds nuw %struct.FunctionCallInfoBaseData, ptr %90, i32 0, i32 6
  %92 = getelementptr inbounds [0 x %struct.NullableDatum], ptr %91, i64 0, i64 0
  %93 = getelementptr inbounds nuw %struct.NullableDatum, ptr %92, i32 0, i32 0
  %94 = load i64, ptr %93, align 8
  %95 = call ptr @DatumGetPointer(i64 noundef %94)
  %96 = icmp ne ptr %89, %95
  br i1 %96, label %97, label %99

97:                                               ; preds = %88
  %98 = load ptr, ptr %3, align 8
  call void @pfree(ptr noundef %98)
  br label %99

99:                                               ; preds = %97, %88
  br label %100

100:                                              ; preds = %99
  br label %101

101:                                              ; preds = %100
  %102 = call ptr @pq_endtypsend(ptr noundef %4)
  %103 = call i64 @PointerGetDatum(ptr noundef %102)
  call void @llvm.lifetime.end.p0(i64 8, ptr %6) #11
  call void @llvm.lifetime.end.p0(i64 4, ptr %5) #11
  call void @llvm.lifetime.end.p0(i64 24, ptr %4) #11
  call void @llvm.lifetime.end.p0(i64 8, ptr %3) #11
  ret i64 %103
}