; Function Attrs: nounwind uwtable
define dso_local i64 @tsquerysend(ptr noundef readonly captures(none) %0) local_unnamed_addr #0 {
  %2 = alloca %struct.StringInfoData, align 8
  %3 = getelementptr inbounds nuw i8, ptr %0, i64 32
  %4 = load i64, ptr %3, align 8
  %5 = inttoptr i64 %4 to ptr
  call void @llvm.lifetime.start.p0(i64 24, ptr nonnull %2) #12
  %6 = getelementptr inbounds nuw i8, ptr %5, i64 8
  call void @pq_begintypsend(ptr noundef nonnull %2) #12
  %7 = getelementptr inbounds nuw i8, ptr %5, i64 4
  %8 = load i32, ptr %7, align 4
  call void @enlargeStringInfo(ptr noundef nonnull %2, i32 noundef 4) #12
  call void @llvm.experimental.noalias.scope.decl(metadata !22)
  %9 = call i32 @llvm.bswap.i32(i32 %8)
  %10 = load ptr, ptr %2, align 8, !alias.scope !22
  %11 = getelementptr inbounds nuw i8, ptr %2, i64 8
  %12 = load i32, ptr %11, align 8, !alias.scope !22
  %13 = sext i32 %12 to i64
  %14 = getelementptr inbounds i8, ptr %10, i64 %13
  store i32 %9, ptr %14, align 1, !noalias !22
  %15 = add i32 %12, 4
  store i32 %15, ptr %11, align 8, !alias.scope !22
  %16 = load i32, ptr %7, align 4
  %17 = icmp sgt i32 %16, 0
  br i1 %17, label %.lr.ph, label %._crit_edge

.lr.ph:                                           ; preds = %1, %73
  %.024 = phi ptr [ %74, %73 ], [ %6, %1 ]
  %.02023 = phi i32 [ %75, %73 ], [ 0, %1 ]
  %18 = load i8, ptr %.024, align 4
  call void @enlargeStringInfo(ptr noundef nonnull %2, i32 noundef 1) #12
  call void @llvm.experimental.noalias.scope.decl(metadata !25)
  %19 = load ptr, ptr %2, align 8, !alias.scope !25
  %20 = load i32, ptr %11, align 8, !alias.scope !25
  %21 = sext i32 %20 to i64
  %22 = getelementptr inbounds i8, ptr %19, i64 %21
  store i8 %18, ptr %22, align 1, !noalias !25
  %23 = add i32 %20, 1
  store i32 %23, ptr %11, align 8, !alias.scope !25
  %24 = load i8, ptr %.024, align 4
  switch i8 %24, label %68 [
    i8 1, label %25
    i8 2, label %49
  ]

25:                                               ; preds = %.lr.ph
  %26 = getelementptr inbounds nuw i8, ptr %.024, i64 1
  %27 = load i8, ptr %26, align 1
  call void @enlargeStringInfo(ptr noundef nonnull %2, i32 noundef 1) #12
  call void @llvm.experimental.noalias.scope.decl(metadata !28)
  %28 = load ptr, ptr %2, align 8, !alias.scope !28
  %29 = load i32, ptr %11, align 8, !alias.scope !28
  %30 = sext i32 %29 to i64
  %31 = getelementptr inbounds i8, ptr %28, i64 %30
  store i8 %27, ptr %31, align 1, !noalias !28
  %32 = add i32 %29, 1
  store i32 %32, ptr %11, align 8, !alias.scope !28
  %33 = getelementptr inbounds nuw i8, ptr %.024, i64 2
  %34 = load i8, ptr %33, align 2, !range !7, !noundef !8
  call void @enlargeStringInfo(ptr noundef nonnull %2, i32 noundef 1) #12
  call void @llvm.experimental.noalias.scope.decl(metadata !31)
  %35 = load ptr, ptr %2, align 8, !alias.scope !31
  %36 = load i32, ptr %11, align 8, !alias.scope !31
  %37 = sext i32 %36 to i64
  %38 = getelementptr inbounds i8, ptr %35, i64 %37
  store i8 %34, ptr %38, align 1, !noalias !31
  %39 = add i32 %36, 1
  store i32 %39, ptr %11, align 8, !alias.scope !31
  %40 = load i32, ptr %7, align 4
  %41 = sext i32 %40 to i64
  %42 = mul nsw i64 %41, 12
  %43 = getelementptr inbounds nuw i8, ptr %6, i64 %42
  %44 = getelementptr inbounds nuw i8, ptr %.024, i64 8
  %45 = load i32, ptr %44, align 4
  %46 = lshr i32 %45, 12
  %47 = zext nneg i32 %46 to i64
  %48 = getelementptr inbounds nuw i8, ptr %43, i64 %47
  call void @pq_sendstring(ptr noundef nonnull %2, ptr noundef nonnull %48) #12
  br label %73

49:                                               ; preds = %.lr.ph
  %50 = getelementptr inbounds nuw i8, ptr %.024, i64 1
  %51 = load i8, ptr %50, align 1
  call void @enlargeStringInfo(ptr noundef nonnull %2, i32 noundef 1) #12
  call void @llvm.experimental.noalias.scope.decl(metadata !34)
  %52 = load ptr, ptr %2, align 8, !alias.scope !34
  %53 = load i32, ptr %11, align 8, !alias.scope !34
  %54 = sext i32 %53 to i64
  %55 = getelementptr inbounds i8, ptr %52, i64 %54
  store i8 %51, ptr %55, align 1, !noalias !34
  %56 = add i32 %53, 1
  store i32 %56, ptr %11, align 8, !alias.scope !34
  %57 = load i8, ptr %50, align 1
  %58 = icmp eq i8 %57, 4
  br i1 %58, label %59, label %73

59:                                               ; preds = %49
  %60 = getelementptr inbounds nuw i8, ptr %.024, i64 2
  %61 = load i16, ptr %60, align 2
  call void @enlargeStringInfo(ptr noundef nonnull %2, i32 noundef 2) #12
  call void @llvm.experimental.noalias.scope.decl(metadata !37)
  %62 = call i16 @llvm.bswap.i16(i16 %61)
  %63 = load ptr, ptr %2, align 8, !alias.scope !37
  %64 = load i32, ptr %11, align 8, !alias.scope !37
  %65 = sext i32 %64 to i64
  %66 = getelementptr inbounds i8, ptr %63, i64 %65
  store i16 %62, ptr %66, align 1, !noalias !37
  %67 = add i32 %64, 2
  store i32 %67, ptr %11, align 8, !alias.scope !37
  br label %73

68:                                               ; preds = %.lr.ph
  %69 = call zeroext i1 @errstart_cold(i32 noundef 21, ptr noundef null) #13
  call void @llvm.assume(i1 %69)
  %70 = load i8, ptr %.024, align 4
  %71 = sext i8 %70 to i32
  %72 = call i32 (ptr, ...) @errmsg_internal(ptr noundef nonnull @.str.5, i32 noundef %71) #12
  call void @errfinish(ptr noundef nonnull @.str.1, i32 noundef 1215, ptr noundef nonnull @__func__.tsquerysend) #12
  unreachable

73:                                               ; preds = %49, %59, %25
  %74 = getelementptr inbounds nuw i8, ptr %.024, i64 12
  %75 = add nuw nsw i32 %.02023, 1
  %76 = load i32, ptr %7, align 4
  %77 = icmp slt i32 %75, %76
  br i1 %77, label %.lr.ph, label %._crit_edge, !llvm.loop !40

._crit_edge:                                      ; preds = %73, %1
  %78 = load i64, ptr %3, align 8
  %.not = icmp eq i64 %4, %78
  br i1 %.not, label %80, label %79

79:                                               ; preds = %._crit_edge
  call void @pfree(ptr noundef nonnull %5) #12
  br label %80

80:                                               ; preds = %79, %._crit_edge
  %81 = call ptr @pq_endtypsend(ptr noundef nonnull %2) #12
  %82 = ptrtoint ptr %81 to i64
  call void @llvm.lifetime.end.p0(i64 24, ptr nonnull %2) #12
  ret i64 %82
}